; Function Attrs: nounwind uwtable
define dso_local void @scontrol_print_front_end_list(ptr noundef %0) local_unnamed_addr #0 {
  %2 = alloca ptr, align 8
  %3 = alloca [256 x i8], align 16
  call void @llvm.lifetime.start.p0(i64 8, ptr nonnull %2) #9
  store ptr null, ptr %2, align 8
  %4 = call i32 @scontrol_load_front_end(ptr noundef nonnull %2)
  %.not = icmp eq i32 %4, 0
  br i1 %.not, label %8, label %5

5:                                                ; preds = %1
  store i32 1, ptr @exit_code, align 4
  %6 = load i32, ptr @quiet_flag, align 4
  %.not13 = icmp eq i32 %6, 1
  br i1 %.not13, label %scontrol_print_front_end.exit, label %7

7:                                                ; preds = %5
  tail call void @slurm_perror(ptr noundef nonnull @.str.15) #9
  br label %scontrol_print_front_end.exit

8:                                                ; preds = %1
  %9 = load i32, ptr @quiet_flag, align 4
  %10 = icmp eq i32 %9, -1
  br i1 %10, label %11, label %16

11:                                               ; preds = %8
  call void @llvm.lifetime.start.p0(i64 256, ptr nonnull %3) #9
  %12 = load ptr, ptr %2, align 8
  call void @slurm_make_time_str(ptr noundef %12, ptr noundef nonnull %3, i32 noundef 256) #9
  %13 = getelementptr inbounds nuw i8, ptr %12, i64 8
  %14 = load i32, ptr %13, align 8
  %15 = call i32 (ptr, ...) @printf(ptr noundef nonnull dereferenceable(1) @.str.7, ptr noundef nonnull %3, i32 noundef %14)
  call void @llvm.lifetime.end.p0(i64 256, ptr nonnull %3) #9
  br label %16

16:                                               ; preds = %11, %8
  %17 = icmp eq ptr %0, null
  br i1 %17, label %18, label %40

18:                                               ; preds = %16
  %19 = load ptr, ptr %2, align 8
  %20 = getelementptr inbounds nuw i8, ptr %19, i64 8
  %21 = load i32, ptr %20, align 8
  %.not37.i = icmp eq i32 %21, 0
  br i1 %.not37.i, label %.loopexit.thread.i, label %.lr.ph.i

.lr.ph.i:                                         ; preds = %18
  %22 = getelementptr inbounds nuw i8, ptr %19, i64 16
  br label %.lr.ph.split.us.split.i

.lr.ph.split.us.split.i:                          ; preds = %33, %.lr.ph.i
  %23 = phi i32 [ %34, %33 ], [ %21, %.lr.ph.i ]
  %indvars.iv.i = phi i64 [ %indvars.iv.next.i, %33 ], [ 0, %.lr.ph.i ]
  %.034.us.i = phi i32 [ %.2.us.i, %33 ], [ 0, %.lr.ph.i ]
  %24 = load ptr, ptr %22, align 8
  %25 = getelementptr inbounds nuw %struct.front_end_info, ptr %24, i64 %indvars.iv.i, i32 5
  %26 = load ptr, ptr %25, align 8
  %27 = icmp eq ptr %26, null
  br i1 %27, label %33, label %28

28:                                               ; preds = %.lr.ph.split.us.split.i
  %29 = add nsw i32 %.034.us.i, 1
  %30 = load ptr, ptr @stdout, align 8
  %31 = getelementptr inbounds nuw %struct.front_end_info, ptr %24, i64 %indvars.iv.i
  %32 = load i32, ptr @one_liner, align 4
  call void @slurm_print_front_end_table(ptr noundef %30, ptr noundef %31, i32 noundef %32) #9
  %.pre43.i = load i32, ptr %20, align 8
  br label %33

33:                                               ; preds = %28, %.lr.ph.split.us.split.i
  %34 = phi i32 [ %.pre43.i, %28 ], [ %23, %.lr.ph.split.us.split.i ]
  %.2.us.i = phi i32 [ %29, %28 ], [ %.034.us.i, %.lr.ph.split.us.split.i ]
  %indvars.iv.next.i = add nuw nsw i64 %indvars.iv.i, 1
  %35 = zext i32 %34 to i64
  %36 = icmp samesign ult i64 %indvars.iv.next.i, %35
  br i1 %36, label %.lr.ph.split.us.split.i, label %.loopexit.i, !llvm.loop !15

.loopexit.i:                                      ; preds = %33
  %37 = icmp ne i32 %.2.us.i, 0
  %38 = load i32, ptr @quiet_flag, align 4
  %.not30.i = icmp eq i32 %38, 1
  %or.cond = select i1 %37, i1 true, i1 %.not30.i
  br i1 %or.cond, label %scontrol_print_front_end.exit, label %39

.loopexit.thread.i:                               ; preds = %18
  %.old = load i32, ptr @quiet_flag, align 4
  %.not30.i.old = icmp eq i32 %.old, 1
  br i1 %.not30.i.old, label %scontrol_print_front_end.exit, label %39

39:                                               ; preds = %.loopexit.i, %.loopexit.thread.i
  %puts.i = call i32 @puts(ptr nonnull dereferenceable(1) @str.3)
  br label %scontrol_print_front_end.exit

40:                                               ; preds = %16
  %41 = call ptr @hostlist_create(ptr noundef nonnull %0) #9
  %.not10 = icmp eq ptr %41, null
  br i1 %.not10, label %72, label %.preheader

.preheader:                                       ; preds = %40
  %42 = call ptr @hostlist_shift(ptr noundef nonnull %41) #9
  %.not1230 = icmp eq ptr %42, null
  br i1 %.not1230, label %._crit_edge, label %.lr.ph

.lr.ph:                                           ; preds = %.preheader
  %43 = load ptr, ptr %2, align 8
  %44 = getelementptr inbounds nuw i8, ptr %43, i64 8
  %45 = getelementptr inbounds nuw i8, ptr %43, i64 16
  br label %46

46:                                               ; preds = %.lr.ph, %scontrol_print_front_end.exit26
  %47 = phi ptr [ %42, %.lr.ph ], [ %71, %scontrol_print_front_end.exit26 ]
  %48 = load i32, ptr %44, align 8
  %.not37.i14 = icmp eq i32 %48, 0
  br i1 %.not37.i14, label %.loopexit.thread.i16, label %.lr.ph.split.preheader.i

.lr.ph.split.preheader.i:                         ; preds = %46
  %.pre41.i = load i32, ptr @scontrol_print_front_end.last_inx, align 4
  br label %.lr.ph.split.i

.lr.ph.split.i:                                   ; preds = %63, %.lr.ph.split.preheader.i
  %49 = phi i32 [ %64, %63 ], [ %48, %.lr.ph.split.preheader.i ]
  %50 = phi i32 [ %65, %63 ], [ %.pre41.i, %.lr.ph.split.preheader.i ]
  %.02133.i = phi i32 [ %66, %63 ], [ 0, %.lr.ph.split.preheader.i ]
  %51 = add nsw i32 %.02133.i, %50
  %52 = urem i32 %51, %49
  %53 = load ptr, ptr %45, align 8
  %54 = sext i32 %52 to i64
  %55 = getelementptr inbounds %struct.front_end_info, ptr %53, i64 %54, i32 5
  %56 = load ptr, ptr %55, align 8
  %.not27.i = icmp eq ptr %56, null
  br i1 %.not27.i, label %63, label %57

57:                                               ; preds = %.lr.ph.split.i
  %58 = call i32 @xstrcmp(ptr noundef nonnull %47, ptr noundef nonnull %56) #9
  %.not28.i = icmp eq i32 %58, 0
  br i1 %.not28.i, label %.loopexit.thread45.i, label %._crit_edge.i

._crit_edge.i:                                    ; preds = %57
  %.pre.i = load i32, ptr @scontrol_print_front_end.last_inx, align 4
  %.pre42.i = load i32, ptr %44, align 8
  br label %63

.loopexit.thread45.i:                             ; preds = %57
  %59 = load ptr, ptr @stdout, align 8
  %60 = load ptr, ptr %45, align 8
  %61 = getelementptr inbounds %struct.front_end_info, ptr %60, i64 %54
  %62 = load i32, ptr @one_liner, align 4
  call void @slurm_print_front_end_table(ptr noundef %59, ptr noundef %61, i32 noundef %62) #9
  store i32 %52, ptr @scontrol_print_front_end.last_inx, align 4
  br label %scontrol_print_front_end.exit26

63:                                               ; preds = %._crit_edge.i, %.lr.ph.split.i
  %64 = phi i32 [ %49, %.lr.ph.split.i ], [ %.pre42.i, %._crit_edge.i ]
  %65 = phi i32 [ %50, %.lr.ph.split.i ], [ %.pre.i, %._crit_edge.i ]
  %66 = add nuw nsw i32 %.02133.i, 1
  %67 = icmp ult i32 %66, %64
  br i1 %67, label %.lr.ph.split.i, label %.loopexit.thread.i16, !llvm.loop !15

.loopexit.thread.i16:                             ; preds = %63, %46
  store i32 1, ptr @exit_code, align 4
  %68 = load i32, ptr @quiet_flag, align 4
  %.not31.i = icmp eq i32 %68, 1
  br i1 %.not31.i, label %scontrol_print_front_end.exit26, label %69

69:                                               ; preds = %.loopexit.thread.i16
  %70 = call i32 (ptr, ...) @printf(ptr noundef nonnull dereferenceable(1) @.str.4, ptr noundef nonnull %47)
  br label %scontrol_print_front_end.exit26

scontrol_print_front_end.exit26:                  ; preds = %.loopexit.thread45.i, %.loopexit.thread.i16, %69
  call void @free(ptr noundef %47) #9
  %71 = call ptr @hostlist_shift(ptr noundef nonnull %41) #9
  %.not12 = icmp eq ptr %71, null
  br i1 %.not12, label %._crit_edge, label %46, !llvm.loop !16

._crit_edge:                                      ; preds = %scontrol_print_front_end.exit26, %.preheader
  call void @hostlist_destroy(ptr noundef nonnull %41) #9
  br label %scontrol_print_front_end.exit

72:                                               ; preds = %40
  store i32 1, ptr @exit_code, align 4
  %73 = load i32, ptr @quiet_flag, align 4
  %.not11 = icmp eq i32 %73, 1
  br i1 %.not11, label %scontrol_print_front_end.exit, label %74

74:                                               ; preds = %72
  %75 = tail call ptr @__errno_location() #10
  %76 = load i32, ptr %75, align 4
  switch i32 %76, label %83 [
    i32 22, label %77
    i32 34, label %80
  ]

77:                                               ; preds = %74
  %78 = load ptr, ptr @stderr, align 8
  %79 = call i32 (ptr, ptr, ...) @fprintf(ptr noundef %78, ptr noundef nonnull @.str.9, ptr noundef nonnull %0) #11
  br label %scontrol_print_front_end.exit

80:                                               ; preds = %74
  %81 = load ptr, ptr @stderr, align 8
  %82 = call i32 (ptr, ptr, ...) @fprintf(ptr noundef %81, ptr noundef nonnull @.str.10, ptr noundef nonnull %0) #11
  br label %scontrol_print_front_end.exit

83:                                               ; preds = %74
  call void @perror(ptr noundef nonnull @.str.11) #12
  br label %scontrol_print_front_end.exit

scontrol_print_front_end.exit:                    ; preds = %39, %.loopexit.thread.i, %.loopexit.i, %72, %80, %83, %77, %._crit_edge, %5, %7
  call void @llvm.lifetime.end.p0(i64 8, ptr nonnull %2) #9
  ret void
}